; Function Attrs: mustprogress uwtable
define hidden noundef ptr @_ZN7datalog16relation_manager11mk_union_fnERKNS_10table_baseES3_PS2_(ptr noundef nonnull readnone align 8 captures(none) dereferenceable(200) %0, ptr noundef nonnull align 8 dereferenceable(36) %1, ptr noundef nonnull align 8 dereferenceable(36) %2, ptr noundef %3) local_unnamed_addr #4 align 2 {
  %5 = getelementptr inbounds nuw i8, ptr %1, i64 8
  %6 = load ptr, ptr %5, align 8, !tbaa !382
  %7 = load ptr, ptr %6, align 8, !tbaa !3
  %8 = getelementptr inbounds nuw i8, ptr %7, i64 120
  %9 = load ptr, ptr %8, align 8
  %10 = tail call noundef ptr %9(ptr noundef nonnull align 8 dereferenceable(32) %6, ptr noundef nonnull align 8 dereferenceable(36) %1, ptr noundef nonnull align 8 dereferenceable(36) %2, ptr noundef %3)
  %.not = icmp eq ptr %10, null
  br i1 %.not, label %11, label %.thread36

11:                                               ; preds = %4
  %12 = load ptr, ptr %5, align 8, !tbaa !382
  %13 = getelementptr inbounds nuw i8, ptr %2, i64 8
  %14 = load ptr, ptr %13, align 8, !tbaa !382
  %.not27 = icmp eq ptr %12, %14
  br i1 %.not27, label %20, label %15

15:                                               ; preds = %11
  %16 = load ptr, ptr %14, align 8, !tbaa !3
  %17 = getelementptr inbounds nuw i8, ptr %16, i64 120
  %18 = load ptr, ptr %17, align 8
  %19 = tail call noundef ptr %18(ptr noundef nonnull align 8 dereferenceable(32) %14, ptr noundef nonnull align 8 dereferenceable(36) %1, ptr noundef nonnull align 8 dereferenceable(36) %2, ptr noundef %3)
  br label %20

20:                                               ; preds = %15, %11
  %.0 = phi ptr [ %19, %15 ], [ null, %11 ]
  %21 = icmp eq ptr %.0, null
  %22 = icmp ne ptr %3, null
  %or.cond = and i1 %22, %21
  br i1 %or.cond, label %23, label %33

23:                                               ; preds = %20
  %24 = load ptr, ptr %5, align 8, !tbaa !382
  %25 = getelementptr inbounds nuw i8, ptr %3, i64 8
  %26 = load ptr, ptr %25, align 8, !tbaa !382
  %.not28 = icmp eq ptr %24, %26
  %27 = load ptr, ptr %13, align 8
  %.not29 = icmp eq ptr %27, %26
  %or.cond40 = select i1 %.not28, i1 true, i1 %.not29
  br i1 %or.cond40, label %.thread33, label %28

28:                                               ; preds = %23
  %29 = load ptr, ptr %26, align 8, !tbaa !3
  %30 = getelementptr inbounds nuw i8, ptr %29, i64 120
  %31 = load ptr, ptr %30, align 8
  %32 = tail call noundef ptr %31(ptr noundef nonnull align 8 dereferenceable(32) %26, ptr noundef nonnull align 8 dereferenceable(36) %1, ptr noundef nonnull align 8 dereferenceable(36) %2, ptr noundef nonnull %3)
  br label %33

33:                                               ; preds = %28, %20
  %.1 = phi ptr [ %32, %28 ], [ %.0, %20 ]
  %.not30 = icmp eq ptr %.1, null
  br i1 %.not30, label %.thread33, label %.thread36

.thread33:                                        ; preds = %23, %33
  %34 = tail call noalias noundef ptr @_ZN6memory8allocateEm(i64 noundef 16)
  store ptr getelementptr inbounds nuw inrange(-16, 24) (i8, ptr @_ZTVN7datalog16relation_manager22default_table_union_fnE, i64 16), ptr %34, align 8, !tbaa !3
  %35 = getelementptr inbounds nuw i8, ptr %34, i64 8
  store ptr null, ptr %35, align 8, !tbaa !373
  br label %.thread36

.thread36:                                        ; preds = %4, %.thread33, %33
  %.2 = phi ptr [ %.1, %33 ], [ %34, %.thread33 ], [ %10, %4 ]
  ret ptr %.2
}